(dp0
S'RollingCount'
p1
ccollections
defaultdict
p2
(c__builtin__
list
p3
tp4
Rp5
I0
(lp6
(I231476
F50.66517241925706
F101.88261783798305
F245.40835560321216
tp7
a(I211673
F39.8238394630829
F93.01883111863161
F243.51742281994302
tp8
a(I233949
F39.918222932097535
F96.82982091046594
F248.29099075756832
tp9
a(I213895
F42.21219251405949
F94.9312308436104
F253.524345423274
tp10
asI1
(lp11
(I240004
F34.00732721087469
F96.43749881477004
F304.1797214272226
tp12
a(I233854
F25.04213555454935
F94.07111042878209
F288.56501728963354
tp13
asI2
(lp14
(I162631
F4.0
F5.0
F42.00023792564576
tp15
a(I160686
F4.0
F5.0
F41.0
tp16
a(I150222
F4.0
F5.0
F41.999983253634554
tp17
asI3
(lp18
(I195047
F5.0
F11.000000724199056
F61.10382565510533
tp19
a(I195960
F5.0
F12.0
F60.12214942241085
tp20
a(I194784
F5.0
F11.999988210767311
F61.02329835465032
tp21
asI4
(lp22
(I203496
F9.999995982569937
F32.985196511467514
F139.93345108684224
tp23
a(I196421
F9.0
F32.85917300547962
F136.12313563657327
tp24
a(I96873
F11.0
F31.007163195921052
F160.77712051253644
tp25
a(I207256
F8.000360987718915
F30.998078221434433
F141.8780034663398
tp26
a(I197215
F9.999997434501385
F31.901045750976415
F135.97831647417334
tp27
asI5
(lp28
(I233770
F20.99860198683916
F63.792203086946174
F190.7380383263474
tp29
a(I232249
F22.0
F65.01224753669382
F186.79556926363315
tp30
a(I236266
F21.000150302648933
F64.75973991257379
F184.24948247742705
tp31
a(I235443
F19.000002238031204
F63.19262483153107
F191.70146068642458
tp32
a(I218488
F16.000000790221634
F62.63548327824865
F197.78739497576385
tp33
asI6
(lp34
(I228570
F26.499851837285917
F91.2577241770181
F263.4745022782155
tp35
a(I228310
F27.395120833098208
F90.58585026218219
F263.78930390839264
tp36
a(I217561
F22.152721178976506
F86.96124558162929
F272.3638637600737
tp37
a(I222928
F21.59563405131656
F95.30088667913212
F275.5461178159799
tp38
a(I224292
F20.842766322347714
F87.90125107971011
F264.31238405282176
tp39
a(I228023
F23.993893794517806
F92.13160212297242
F263.70088311595896
tp40
a(I214269
F21.00105340631637
F86.99550935856692
F258.36171363398694
tp41
a(I216535
F19.185951023744174
F84.88871088934417
F269.8224305617328
tp42
a(I217558
F22.002830041075143
F89.39553084633982
F268.03203536682
tp43
a(I228948
F21.00002595321279
F85.36496734311682
F247.04591814588971
tp44
asI7
(lp45
(I181760
F9.0
F45.22403120544101
F176.9442568367596
tp46
asI8
(lp47
(I204377
F5.0
F18.999631579312833
F122.4306704618501
tp48
asI9
(lp49
(I216950
F8.999742103302015
F27.00027213732774
F91.0896214019641
tp50
a(I216029
F8.0
F27.23848895167597
F96.36168567844226
tp51
a(I211713
F8.000363971558121
F27.019601645849505
F97.89778557367704
tp52
a(I213771
F8.000820268870651
F26.00000108007093
F97.54703105613697
tp53
a(I212012
F8.0
F26.991612928507486
F93.99741307540403
tp54
a(I223773
F7.999993625914945
F26.00153624128281
F97.6629704484858
tp55
asI10
(lp56
(I265571
F77.4756729023395
F208.04694165595862
F593.2368534109471
tp57
a(I260911
F60.8322074801092
F204.23304927057995
F524.1448604470415
tp58
a(I259524
F50.80710049187709
F200.70741672380632
F568.9847682599511
tp59
a(I273175
F43.25715703256631
F197.40063743050797
F572.3696815810534
tp60
a(I256773
F47.36217223011394
F199.12236052423995
F555.2318661805663
tp61
a(I260650
F50.96720195086455
F189.66687994954754
F568.8535116156208
tp62
a(I269114
F49.22509194296031
F193.71554398572516
F584.1197369710713
tp63
a(I255235
F43.058296459690794
F206.54713629950743
F576.3082910762475
tp64
a(I256781
F52.02916230438299
F196.8698224533856
F556.8045878717988
tp65
a(I252992
F52.56150033746055
F197.6297326171117
F546.4869139712208
tp66
a(I248859
F49.434749251800866
F204.961511529818
F558.5172272770434
tp67
a(I247895
F49.76535540335448
F204.11953532033328
F576.8878639730724
tp68
a(I253705
F39.04130581786883
F190.83260681878468
F569.5535032480188
tp69
asI11
(lp70
(I223585
F33.579912729197915
F156.8309499368483
F465.89789607498744
tp71
a(I229433
F38.155259041212815
F171.02969427161148
F462.05601722914014
tp72
a(I214643
F33.90887689901529
F160.0209566896478
F475.4811064863609
tp73
asI12
(lp74
(I256820
F59.922013494499666
F173.10177798796107
F563.7119891284215
tp75
a(I255303
F58.48901401449383
F169.22828325137766
F573.5512213368254
tp76
a(I254010
F52.74805861366245
F178.7843808935876
F555.0234039285995
tp77
a(I256103
F47.69166226157013
F188.00364712118042
F605.0739083802728
tp78
a(I256712
F55.343034049266485
F191.62821023451033
F512.6802735628099
tp79
a(I246659
F44.74505799549142
F188.37088173551714
F544.2741219663881
tp80
a(I248158
F41.46604803751893
F168.5710111723883
F547.8331977119711
tp81
a(I241266
F37.14707128382625
F183.86735665857748
F601.0652017499285
tp82
asI13
(lp83
(I241179
F24.827084407895544
F105.02321649530275
F315.6233717067048
tp84
a(I239863
F30.2611962837544
F108.90684940477692
F310.13475474997443
tp85
a(I234087
F24.053696963159815
F107.03704871978394
F333.576448055544
tp86
asI14
(lp87
(I132982
F8.0
F10.0
F42.0
tp88
a(I134388
F8.0
F10.0
F46.0
tp89
a(I138713
F8.0
F10.0
F43.99991088137917
tp90
a(I137468
F8.0
F10.0
F42.99999999999999
tp91
a(I149323
F8.0
F10.0
F42.99916785538676
tp92
a(I138544
F8.0
F10.0
F44.0
tp93
asI15
(lp94
(I194506
F86.9999995766668
F101.00000548514723
F172.35265420891682
tp95
a(I174762
F83.00196529043467
F99.99948080890732
F171.5566945604919
tp96
a(I186693
F82.97491962855659
F98.00000000000001
F174.95010648187053
tp97
asI16
(lp98
(I229349
F17.999984903740437
F84.04423304059544
F286.10199583665076
tp99
a(I233286
F23.918525621877585
F90.13474715390865
F281.1870405231191
tp100
a(I233204
F24.000248090072247
F88.8936206229801
F263.27359712413846
tp101
a(I247377
F23.951500963648158
F88.37997481817476
F270.1209541927601
tp102
a(I230382
F22.99321342450511
F86.47103205228547
F270.9344038641311
tp103
a(I226918
F19.007231776107147
F84.00736635576845
F263.45614669051815
tp104
asI17
(lp105
(I230264
F22.583338081932972
F76.67568678513753
F241.73251257493033
tp106
a(I228468
F19.83267935731033
F76.89618337529423
F258.51057571397615
tp107
a(I218171
F15.999852352291247
F82.03423553745733
F272.0579773563827
tp108
a(I227691
F19.995250133928508
F81.47486462116865
F261.6318456015225
tp109
asI18
(lp110
(I189579
F5.0
F26.927820643384532
F146.9354312632979
tp111
a(I188724
F6.0
F34.951066137308224
F156.01543084316776
tp112
asI19
(lp113
(I199783
F5.999990983508862
F16.997696124036466
F94.5292820712288
tp114
a(I204972
F6.0
F19.593240831634834
F93.76910816807904
tp115
a(I200367
F6.0
F19.0
F93.76336707325704
tp116
a(I205047
F7.0
F22.00000388076159
F109.23771508738923
tp117
a(I192834
F7.000000000000001
F21.999989439501537
F101.82992390738004
tp118
assS'RollingTopWords'
p119
g2
(g3
tp120
Rp121
I0
(lp122
(I147741
F11.999999035533865
F222.53405024026253
F353.0058825865291
tp123
a(I142141
F10.792440649183847
F224.8900142808177
F370.60313754778656
tp124
a(I144243
F10.99981950442128
F219.01366219250755
F369.2098747331547
tp125
a(I148221
F17.14172727100679
F208.08811604891395
F334.6855144246483
tp126
asI1
(lp127
(I149289
F20.08818496680252
F284.70402729546703
F493.15362410490985
tp128
a(I162918
F30.22377260190725
F278.8573059442034
F470.1532806047984
tp129
a(I166834
F36.60393107747532
F273.3430566978237
F470.5984991276549
tp130
a(I161033
F23.14830034451594
F272.4372092605356
F535.9596110884594
tp131
a(I156019
F42.122108213338464
F261.3080130314018
F503.98864264996274
tp132
a(I166565
F39.7556559454682
F272.46486029170165
F532.4537032133351
tp133
a(I161685
F32.7875822910256
F269.1843712034977
F494.9872703108622
tp134
a(I160205
F47.40076832813686
F265.4920518569483
F488.92439259674813
tp135
asI2
(lp136
(I136501
F7.0
F15.0
F57.055737076021785
tp137
a(I146122
F7.0
F15.0
F65.24037910336513
tp138
a(I139470
F7.0
F15.0
F67.95832649768869
tp139
a(I147256
F6.999999999999999
F14.999977146103047
F75.64355244423479
tp140
asI3
(lp141
(I163371
F6.0
F30.00918909329782
F66.29771324773245
tp142
asI4
(lp143
(I147461
F10.000824903226395
F205.04200815339115
F340.74871863945083
tp144
a(I163861
F23.378511968424178
F183.76717726072025
F339.2017898609858
tp145
a(I167584
F23.785428841825517
F171.50894788849558
F352.81032347706673
tp146
a(I160362
F25.314799877919345
F169.11471482878756
F316.8288602322598
tp147
a(I156430
F17.393860794321256
F181.1070140877545
F335.8346662913877
tp148
asI5
(lp149
(I144807
F13.987240880415449
F191.61240099271322
F340.2581605804211
tp150
a(I153673
F13.814321480152762
F184.78850623711426
F347.3816455833455
tp151
a(I159236
F10.000078314792157
F192.91822421594102
F347.27971193291
tp152
a(I151777
F13.69915076760445
F188.5385522584857
F343.1730719517443
tp153
a(I164139
F14.992951332008108
F181.31134911169522
F347.7551682474236
tp154
a(I156700
F19.575345111879756
F182.70331162139252
F342.9563462697524
tp155
a(I163363
F24.991788851577965
F173.0754894976165
F324.5658206802527
tp156
a(I160776
F17.765223508011307
F177.70901703291207
F329.1860079304927
tp157
a(I159851
F18.470701669862855
F177.05355135204843
F312.69199860101014
tp158
a(I156902
F26.049457757588268
F172.20009442691224
F316.52330797569334
tp159
a(I157628
F21.352922119366195
F181.00619268414238
F347.87580138754697
tp160
a(I157457
F24.950654808870407
F178.716719497846
F381.72689541929844
tp161
asI6
(lp162
(I151722
F12.000700680363547
F268.53186440081436
F444.37580330278325
tp163
a(I152063
F24.279919145249103
F254.6127371035071
F438.9917976985663
tp164
a(I157903
F18.824146063593048
F250.85802586570458
F430.8575126089384
tp165
a(I155381
F13.987606537627515
F254.0269362343479
F450.7979285678123
tp166
a(I150069
F16.45910884779227
F257.18577456473787
F453.79265613736914
tp167
a(I150708
F18.323079416389593
F249.01296539749646
F436.00069592858216
tp168
a(I163402
F16.196154229931995
F260.74888540552473
F452.11981003868704
tp169
a(I150034
F15.975815225284332
F255.5700705787716
F412.12455557930633
tp170
a(I155194
F16.727955502597297
F256.5565806615665
F454.6011182345395
tp171
a(I160136
F16.730644122346902
F251.39064017735836
F411.58266545940774
tp172
a(I148136
F16.851700946929302
F256.01540111703883
F431.7271732801793
tp173
a(I147547
F13.004011269681719
F268.8760226806688
F411.88461375901016
tp174
asI7
(lp175
(I147221
F15.091412455146003
F325.4997772872219
F510.38848802904886
tp176
a(I152591
F9.0
F318.20419170596585
F517.2687152756238
tp177
a(I156962
F24.271410024517582
F304.03307837624874
F464.74958478431427
tp178
a(I162386
F20.724490609606384
F297.4176558652933
F470.07366888995153
tp179
a(I152530
F13.162664829121987
F303.75919395017877
F468.9415183768365
tp180
asI8
(lp181
(I146259
F9.999634242854286
F173.87527426356434
F324.6063626186855
tp182
a(I155517
F10.999912762414686
F171.31734825152893
F312.10518340534975
tp183
a(I150566
F14.213061500816854
F166.25219410686248
F308.98133137717036
tp184
a(I156292
F21.447503451965375
F158.87958497097625
F318.0396028373058
tp185
a(I165051
F20.690128430232523
F163.56874277348516
F339.2590779633849
tp186
a(I166989
F20.85365951532096
F159.365073218414
F322.0065659203477
tp187
asI9
(lp188
(I169499
F7.011666196078736
F66.98593360172484
F130.90483550787195
tp189
a(I160405
F9.0
F66.82929211045091
F135.6295089332798
tp190
a(I161277
F9.35513078520291
F66.03205339511223
F128.54575193873362
tp191
a(I158718
F7.999999689994571
F67.00002315769882
F130.64403659018365
tp192
asI10
(lp193
(I172349
F93.34936402121738
F488.84419551445063
F729.0002991951033
tp194
a(I166803
F104.92748038107679
F503.2713798027679
F763.3283896861885
tp195
a(I176818
F103.33478689437537
F489.08436459284087
F801.9582523921396
tp196
a(I166718
F106.44173224089053
F499.11158314434067
F763.3563375687647
tp197
asI11
(lp198
(I143324
F9.999927742496052
F502.73112313822855
F761.3558741642598
tp199
a(I149686
F14.998396001841177
F488.46662945104725
F725.6730101614806
tp200
a(I151698
F17.290860789584166
F476.8493897492544
F694.7294072188085
tp201
asI12
(lp202
(I99757
F91.03543810879833
F522.0339906370829
F841.3872870048035
tp203
a(I169891
F94.63133617462327
F505.2511492792667
F820.8477486503824
tp204
a(I170128
F114.54863959859138
F506.22257532337886
F718.3929114260545
tp205
a(I165038
F103.04828834875515
F523.5707181800269
F755.6274186631492
tp206
asI13
(lp207
(I163793
F40.995152082171955
F297.8344394215175
F484.97521699681175
tp208
a(I164586
F32.43422509350997
F303.67714984663536
F499.51790984012337
tp209
a(I163124
F35.97762752759354
F303.04964721736485
F560.5873912736176
tp210
a(I160521
F22.00046480005271
F304.0360810578493
F541.7331046156742
tp211
a(I156357
F23.17655452660373
F301.12295248964466
F552.1524956197364
tp212
a(I161299
F25.138188365432665
F307.6528578162024
F517.6244399241956
tp213
asI14
(lp214
(I136506
F7.0
F16.0
F65.04555386985594
tp215
a(I139420
F7.0
F15.0
F64.02755770261915
tp216
a(I139420
F6.999999999999999
F15.0
F66.81739689890213
tp217
a(I131027
F7.0
F15.0
F75.03361980460559
tp218
asI15
(lp219
(I164651
F31.535803877730064
F130.1500740859521
F270.7201708749154
tp220
a(I162974
F26.500679989141275
F128.06607549955586
F258.48201293418134
tp221
a(I160580
F25.709987562828175
F132.63584948017285
F294.0567019197665
tp222
a(I168609
F17.870614136734485
F136.25131796988424
F297.14450999464543
tp223
a(I154267
F22.271243908578096
F131.5690412379781
F310.6212344050328
tp224
a(I154853
F17.95240312573538
F138.9267083176191
F264.6784041406145
tp225
asI16
(lp226
(I164749
F30.143959580404008
F238.51279441043417
F401.7187061517975
tp227
a(I162393
F31.843503267229025
F242.7761428314448
F419.74781131453926
tp228
a(I172792
F30.227537653287747
F236.7054658934071
F437.8537151808124
tp229
a(I159292
F24.37603481890988
F246.61659797893532
F438.6883214849985
tp230
a(I157152
F18.907874397136887
F247.50453301890576
F428.5348437150376
tp231
a(I158347
F22.320143126752157
F238.88468437669957
F423.0560959535558
tp232
a(I160860
F30.057724466892996
F239.56904347798422
F447.19943835886414
tp233
asI17
(lp234
(I153286
F17.735104561566203
F236.62831565904315
F431.2616232894255
tp235
a(I166515
F14.03499893029614
F257.0674090525552
F450.16057252940334
tp236
asI18
(lp237
(I157358
F15.197326108742734
F294.1575033406684
F532.4075554929
tp238
a(I159691
F24.28022009789353
F279.5494835913735
F493.0581655610536
tp239
a(I159176
F15.00007653848163
F299.9408377880284
F511.4956343474559
tp240
a(I152996
F13.999944732567197
F289.729561589906
F547.3069722676181
tp241
a(I149980
F15.352146505129951
F296.5341073587167
F517.105402007655
tp242
asI19
(lp243
(I152600
F8.999953606296941
F110.2770765289397
F222.2803929967389
tp244
a(I154959
F15.000866102327928
F103.76857020513069
F251.02097944807375
tp245
a(I165980
F17.727820703420228
F103.7475977068234
F210.94755107420207
tp246
a(I161722
F12.652676001867684
F104.1407673732528
F237.6139493192032
tp247
assS'SentimentAnalysis'
p248
g2
(g3
tp249
Rp250
I0
(lp251
(I148564
F15.942048517520217
F365.9161339959879
F538.8456119808104
tp252
a(I138443
F145.0
F393.43414730169394
F725.0
tp253
a(I148996
F127.77528391296721
F376.5663514405103
F545.9862841530054
tp254
a(I141506
F121.25493444840876
F484.92244970671675
F638.0
tp255
a(I140128
F22.156424636842036
F363.40244005488984
F593.0855064935063
tp256
asI1
(lp257
(I150403
F228.00089285552315
F375.05609151288803
F787.9948587648851
tp258
a(I157970
F164.85550108847085
F351.0
F519.6081651376145
tp259
a(I153671
F255.06922976040562
F454.0537371581902
F730.0290858708513
tp260
a(I145274
F207.19648748879223
F421.267801621005
F609.0
tp261
a(I152210
F272.87820574829226
F401.2853699915855
F648.0158536773201
tp262
a(I158869
F211.78844530628913
F376.2365183918019
F543.0575949152543
tp263
asI2
(lp264
(I156933
F10.0
F12.0
F20.0
tp265
a(I161003
F10.0
F12.0
F21.0
tp266
a(I158701
F10.0
F12.0
F22.0
tp267
a(I168105
F10.0
F12.0
F22.0
tp268
a(I157504
F10.0
F12.0
F21.0
tp269
a(I176481
F10.0
F11.0
F22.0
tp270
asI3
(lp271
(I135080
F32.000014510835975
F54.0
F90.0
tp272
a(I136881
F31.996548095167036
F54.000048310483706
F91.0
tp273
a(I134773
F32.997804398945064
F53.99998648773942
F90.0
tp274
a(I136442
F32.0
F53.0
F90.00000000000001
tp275
a(I135859
F32.0
F53.98327587017716
F89.0
tp276
asI4
(lp277
(I150053
F188.85861024428965
F368.6062247493641
F482.0
tp278
a(I159674
F14.115181945572623
F329.8502362508458
F657.9999999999999
tp279
asI5
(lp280
(I174166
F130.23900280926105
F203.8147217451772
F389.5581076614967
tp281
a(I175763
F126.95202153081271
F201.99044343230372
F391.0280988372094
tp282
a(I176840
F124.51251421540141
F200.54328790560905
F408.6623292110496
tp283
a(I174626
F128.78504947464205
F202.96951928067378
F390.92569008526675
tp284
a(I174665
F129.46614529197228
F205.243344676461
F377.4935269469414
tp285
asI6
(lp286
(I175452
F157.0
F211.18755307136803
F337.9340169874767
tp287
a(I181493
F157.40194158454142
F243.29432693005106
F400.91174503657265
tp288
a(I172994
F157.9925762143947
F235.1974650822125
F411.36976517662276
tp289
a(I179865
F172.01463775180662
F240.21444609484584
F365.7007041343668
tp290
a(I180998
F156.01573160426787
F237.7124761522506
F404.9713630434783
tp291
a(I176191
F173.07664432822025
F259.48188656219384
F417.73003936080744
tp292
a(I181397
F165.05918231365044
F244.9252963410668
F383.00449682933555
tp293
a(I190229
F179.83335923121575
F252.47542201122434
F402.9983120139897
tp294
a(I177039
F161.03239808893198
F218.01560129201934
F330.9949813801103
tp295
asI7
(lp296
(I179866
F219.0
F322.3363230400828
F585.8988888888891
tp297
a(I175072
F220.2837424999593
F335.66635713879776
F547.0
tp298
a(I175500
F226.04555103484876
F323.7515582355189
F546.0
tp299
a(I187301
F211.129769193409
F289.6886792128796
F525.0
tp300
a(I168327
F236.1256410781289
F311.0
F470.00000000000006
tp301
a(I168158
F238.95896386469104
F364.34611335196627
F521.1762679668207
tp302
a(I167568
F273.80839727796075
F348.1003420048416
F520.0457013045232
tp303
asI8
(lp304
(I164970
F148.19699442849316
F242.6946296366186
F355.1495029649596
tp305
a(I168057
F141.0
F174.82940143977402
F320.0
tp306
a(I167177
F147.0
F190.48653900780408
F266.2126549059628
tp307
a(I170715
F137.15178111627733
F169.6342660019975
F288.0009793253125
tp308
a(I177402
F144.88393741334917
F229.12237577689206
F337.94522243713766
tp309
a(I176423
F145.50082954304338
F271.3466603729054
F390.075693969741
tp310
asI9
(lp311
(I136359
F67.38462695956565
F122.76473257652178
F218.67554553099737
tp312
a(I134477
F68.19893773250601
F122.87557317078407
F215.00238213578834
tp313
a(I131221
F67.36234337542848
F120.6888372867013
F215.71169887013022
tp314
a(I134698
F66.4137336604391
F126.43901836426252
F215.93190215617574
tp315
a(I135475
F68.87474334672278
F123.11210937480257
F218.0
tp316
a(I134407
F66.67295186469335
F123.84932548600091
F215.00330789023653
tp317
a(I142685
F67.17860666097818
F121.3233036773569
F217.23644412187608
tp318
a(I135607
F69.48632108626202
F121.02210563748729
F205.99394341259867
tp319
asI10
(lp320
(I132340
F447.34664000639316
F1001.4509147853114
F1820.0225375424884
tp321
a(I132204
F473.77956848752063
F1008.0356656155815
F1723.2285652039682
tp322
a(I132493
F599.9391077624376
F869.0713945051375
F1458.061212236138
tp323
a(I132388
F547.4790841341023
F862.5565364379154
F1577.049821797628
tp324
a(I132439
F500.9353686254226
F941.464543198102
F1736.3981808273106
tp325
a(I131957
F578.2283869655258
F944.93518541367
F1509.4212185803717
tp326
a(I128601
F541.0784900223779
F900.7532753253719
F1511.7503274667367
tp327
asI11
(lp328
(I159719
F292.80020911187927
F433.57537765665495
F799.8717375886526
tp329
a(I156434
F299.20016018421967
F537.9657857990032
F925.0
tp330
a(I154086
F375.7195217161085
F454.0272501145854
F847.0
tp331
a(I157261
F378.03780995957663
F473.22240240692577
F648.1651894429563
tp332
a(I156412
F362.8255736510147
F476.1941928868847
F874.7676777647443
tp333
asI12
(lp334
(I133961
F536.5265589442361
F860.0496139804771
F1885.6869770220874
tp335
a(I135235
F558.0417359951904
F943.241392075314
F1519.172079753972
tp336
a(I134703
F432.18195309686075
F1065.5839991299963
F1689.5088583856023
tp337
a(I134611
F534.6208574256048
F910.2918823185465
F1430.8427760300467
tp338
asI13
(lp339
(I176248
F218.23379843612616
F333.3660118087277
F664.9577951652573
tp340
a(I178525
F217.29060602217228
F331.80265392138057
F679.0757476418863
tp341
a(I176992
F222.27876497043619
F347.02130200803515
F658.7613041765675
tp342
a(I177721
F211.84051916478822
F336.0690472841556
F679.8330332797746
tp343
a(I180311
F221.43280689249255
F342.59721503973446
F603.6432576988514
tp344
a(I180083
F213.08347574943474
F343.35203862260835
F615.0566249785783
tp345
a(I176158
F216.05851284561987
F321.2581595431911
F626.9333401067524
tp346
asI14
(lp347
(I87132
F25.0
F37.0
F56.0
tp348
a(I93875
F23.0
F33.0
F52.0
tp349
a(I94035
F23.0
F35.0
F48.0
tp350
a(I89215
F21.0
F35.0
F53.0
tp351
a(I92168
F23.0
F35.0
F52.0
tp352
a(I93520
F19.0
F31.0
F52.0
tp353
asI15
(lp354
(I97058
F254.01906549803877
F310.0
F395.4276148908859
tp355
a(I93229
F234.0
F284.0
F379.2248831464945
tp356
a(I92912
F241.0
F358.0
F380.99999999999994
tp357
asI16
(lp358
(I173817
F153.04442822646536
F253.6671015051896
F679.4279586414852
tp359
a(I168835
F146.31786068184763
F243.00389258230425
F769.4369980108311
tp360
a(I173976
F142.87379693980546
F232.70044762044404
F825.3229599725098
tp361
a(I168300
F145.15163064505674
F240.6661550353242
F764.5509651751554
tp362
a(I173556
F147.74122675818253
F246.1720871248452
F828.1953795115488
tp363
a(I174845
F142.43570146720558
F233.06720264707695
F797.4468042120961
tp364
a(I176613
F138.8984039578607
F234.68758121002065
F772.8947852324735
tp365
a(I173104
F147.11418914346854
F245.61235240361685
F772.6336624451976
tp366
asI17
(lp367
(I177873
F134.7605517567033
F232.52995824439597
F424.3188444444444
tp368
a(I173691
F152.898969250336
F246.7812663570853
F419.3033570412515
tp369
a(I179156
F164.16624871267314
F261.4434503525529
F387.75563046192235
tp370
a(I194569
F161.10312045380198
F254.18341929685266
F375.0
tp371
a(I178293
F148.0142226336439
F219.38107133789316
F395.69468518135085
tp372
a(I176571
F159.0
F246.0
F402.12932174256474
tp373
asI18
(lp374
(I189851
F205.76808912847207
F326.8360772236783
F579.5631584307076
tp375
a(I190540
F206.0474519368234
F326.08490070086685
F585.2362416484118
tp376
a(I190839
F206.69364114945628
F328.33253892870465
F605.9705924045998
tp377
asI19
(lp378
(I154141
F150.31942334936556
F226.39052024802584
F368.9153218884121
tp379
a(I158329
F90.77401590027108
F256.9872505754675
F337.0
tp380
a(I150354
F132.25034022126434
F233.0
F347.91454766734256
tp381
a(I157164
F14.0
F193.03207649748475
F266.0
tp382
a(I158520
F73.93591636173747
F307.6591929698896
F403.628024691358
tp383
a(I155666
F50.487109963517725
F264.4766340914988
F348.0
tp384
a(I158876
F12.0
F210.99933816619
F305.0
tp385
ass.